target datalayout = "e-m:e-p270:32:32-p271:32:32-p272:64:64-i64:64-i128:128-f80:128-n8:16:32:64-S128"
target triple = "x86_64-pc-linux-gnu"

; Function Attrs: nounwind uwtable
define i32 @ossl_param_build_set_bn(ptr noundef %0, ptr noundef %1, ptr noundef %2, ptr noundef %3) #0 {
  %5 = alloca i32, align 4
  %6 = alloca ptr, align 8
  %7 = alloca ptr, align 8
  %8 = alloca ptr, align 8
  %9 = alloca ptr, align 8
  store ptr %0, ptr %6, align 8, !tbaa !3
  store ptr %1, ptr %7, align 8, !tbaa !8
  store ptr %2, ptr %8, align 8, !tbaa !10
  store ptr %3, ptr %9, align 8, !tbaa !16
  %10 = load ptr, ptr %6, align 8, !tbaa !3
  %11 = icmp ne ptr %10, null
  br i1 %11, label %12, label %17

12:                                               ; preds = %4
  %13 = load ptr, ptr %6, align 8, !tbaa !3
  %14 = load ptr, ptr %8, align 8, !tbaa !10
  %15 = load ptr, ptr %9, align 8, !tbaa !16
  %16 = call i32 @OSSL_PARAM_BLD_push_BN(ptr noundef %13, ptr noundef %14, ptr noundef %15)
  store i32 %16, ptr %5, align 4
  br label %30

17:                                               ; preds = %4
  %18 = load ptr, ptr %7, align 8, !tbaa !8
  %19 = load ptr, ptr %8, align 8, !tbaa !10
  %20 = call ptr @OSSL_PARAM_locate(ptr noundef %18, ptr noundef %19)
  store ptr %20, ptr %7, align 8, !tbaa !8
  %21 = load ptr, ptr %7, align 8, !tbaa !8
  %22 = icmp ne ptr %21, null
  br i1 %22, label %23, label %29

23:                                               ; preds = %17
  %24 = load ptr, ptr %7, align 8, !tbaa !8
  %25 = load ptr, ptr %9, align 8, !tbaa !16
  %26 = call i32 @OSSL_PARAM_set_BN(ptr noundef %24, ptr noundef %25)
  %27 = icmp sgt i32 %26, 0
  %28 = zext i1 %27 to i32
  store i32 %28, ptr %5, align 4
  br label %30

29:                                               ; preds = %17
  store i32 1, ptr %5, align 4
  br label %30

30:                                               ; preds = %29, %23, %12
  %31 = load i32, ptr %5, align 4
  ret i32 %31
}