; Function Attrs: nounwind uwtable
define i32 @ossl_param_build_set_bn(ptr noundef %0, ptr noundef %1, ptr noundef %2, ptr noundef %3) local_unnamed_addr #0 {
  %.not = icmp eq ptr %0, null
  br i1 %.not, label %7, label %5

5:                                                ; preds = %4
  %6 = tail call i32 @OSSL_PARAM_BLD_push_BN(ptr noundef nonnull %0, ptr noundef %2, ptr noundef %3) #2
  br label %13

7:                                                ; preds = %4
  %8 = tail call ptr @OSSL_PARAM_locate(ptr noundef %1, ptr noundef %2) #2
  %.not11 = icmp eq ptr %8, null
  br i1 %.not11, label %13, label %9

9:                                                ; preds = %7
  %10 = tail call i32 @OSSL_PARAM_set_BN(ptr noundef nonnull %8, ptr noundef %3) #2
  %11 = icmp sgt i32 %10, 0
  %12 = zext i1 %11 to i32
  br label %13

13:                                               ; preds = %7, %9, %5
  %.0 = phi i32 [ %6, %5 ], [ %12, %9 ], [ 1, %7 ]
  ret i32 %.0
}